; Function Attrs: nounwind uwtable
define ptr @l___private_Lean_Meta_LazyDiscrTree_0__Lean_Meta_LazyDiscrTree_newTrie___rarg(ptr noundef %0, ptr noundef %1) #1 {
  %3 = getelementptr inbounds nuw i8, ptr %0, i64 24
  %4 = load ptr, ptr %3, align 8, !tbaa !4
  %5 = ptrtoint ptr %4 to i64
  %6 = and i64 %5, 1
  %.not = icmp eq i64 %6, 0
  br i1 %.not, label %7, label %lean_inc.exit

7:                                                ; preds = %2
  %.val.i = load i32, ptr %4, align 4, !tbaa !8
  %8 = icmp sgt i32 %.val.i, 0
  br i1 %8, label %9, label %11, !prof !11

9:                                                ; preds = %7
  %10 = add nuw i32 %.val.i, 1
  store i32 %10, ptr %4, align 4, !tbaa !8
  br label %lean_inc.exit

11:                                               ; preds = %7
  %.not.i8 = icmp eq i32 %.val.i, 0
  br i1 %.not.i8, label %lean_inc.exit, label %12

12:                                               ; preds = %11
  tail call void @lean_inc_ref_cold(ptr noundef nonnull %4) #6
  br label %lean_inc.exit

lean_inc.exit:                                    ; preds = %12, %11, %9, %2
  %13 = ptrtoint ptr %0 to i64
  %14 = and i64 %13, 1
  %.not9 = icmp eq i64 %14, 0
  br i1 %.not9, label %15, label %lean_dec.exit

15:                                               ; preds = %lean_inc.exit
  %16 = load i32, ptr %0, align 4, !tbaa !8
  %17 = icmp sgt i32 %16, 1
  br i1 %17, label %18, label %20, !prof !11

18:                                               ; preds = %15
  %19 = add nsw i32 %16, -1
  store i32 %19, ptr %0, align 4, !tbaa !8
  br label %lean_dec.exit

20:                                               ; preds = %15
  %.not.i = icmp eq i32 %16, 0
  br i1 %.not.i, label %lean_dec.exit, label %21

21:                                               ; preds = %20
  tail call void @lean_dec_ref_cold(ptr noundef nonnull %0) #6
  br label %lean_dec.exit

lean_dec.exit:                                    ; preds = %21, %20, %18, %lean_inc.exit
  tail call void @lean_inc_heartbeat() #6
  %22 = tail call noalias ptr @mi_malloc_small(i64 noundef 32) #6
  %23 = icmp eq ptr %22, null
  br i1 %23, label %24, label %lean_alloc_closure.exit

24:                                               ; preds = %lean_dec.exit
  tail call void @lean_internal_panic_out_of_memory() #7
  unreachable

lean_alloc_closure.exit:                          ; preds = %lean_dec.exit
  %25 = getelementptr inbounds nuw i8, ptr %22, i64 4
  store i32 1, ptr %22, align 4, !tbaa !8
  store i32 -184549344, ptr %25, align 4
  %26 = getelementptr inbounds nuw i8, ptr %22, i64 8
  store ptr @l___private_Lean_Meta_LazyDiscrTree_0__Lean_Meta_LazyDiscrTree_newTrie___rarg___lambda__1, ptr %26, align 8, !tbaa !4
  %27 = getelementptr inbounds nuw i8, ptr %22, i64 16
  store i16 2, ptr %27, align 8, !tbaa !19
  %28 = getelementptr inbounds nuw i8, ptr %22, i64 18
  store i16 1, ptr %28, align 2, !tbaa !19
  %29 = getelementptr inbounds nuw i8, ptr %22, i64 24
  store ptr %1, ptr %29, align 8, !tbaa !4
  %30 = tail call ptr @lean_apply_2(ptr noundef %4, ptr noundef nonnull inttoptr (i64 1 to ptr), ptr noundef nonnull %22) #6
  ret ptr %30
}